; Function Attrs: mustprogress uwtable
define void @_ZN3zmq20stream_engine_base_t9terminateEv(ptr noundef nonnull align 8 dereferenceable(1689) %this) unnamed_addr #0 align 2 {
entry:
  tail call void @_ZN3zmq20stream_engine_base_t6unplugEv(ptr noundef nonnull align 8 dereferenceable(1689) %this)
  %vtable = load ptr, ptr %this, align 8
  %vfn = getelementptr inbounds i8, ptr %vtable, i64 8
  %0 = load ptr, ptr %vfn, align 8
  tail call void %0(ptr noundef nonnull align 8 dereferenceable(1689) %this) #19
  ret void
}